target datalayout = "e-m:e-p270:32:32-p271:32:32-p272:64:64-i64:64-i128:128-f80:128-n8:16:32:64-S128"
target triple = "x86_64-pc-linux-gnu"

; Function Attrs: nounwind uwtable
define dso_local void @makeCompleteB(i32 noundef %0, i32 noundef %1, ptr noundef %2) #0 {
  %4 = alloca i32, align 4
  %5 = alloca i32, align 4
  %6 = alloca ptr, align 8
  %7 = alloca i32, align 4
  %8 = alloca i32, align 4
  %9 = alloca i32, align 4
  store i32 %0, ptr %4, align 4, !tbaa !4
  store i32 %1, ptr %5, align 4, !tbaa !4
  store ptr %2, ptr %6, align 8, !tbaa !8
  call void @llvm.lifetime.start.p0(i64 4, ptr %7) #11
  store i32 1, ptr %7, align 4, !tbaa !4
  br label %10

10:                                               ; preds = %31, %3
  %11 = load i32, ptr %7, align 4, !tbaa !4
  %12 = load i32, ptr %4, align 4, !tbaa !4
  %13 = icmp ule i32 %11, %12
  br i1 %13, label %15, label %14

14:                                               ; preds = %10
  store i32 2, ptr %8, align 4
  call void @llvm.lifetime.end.p0(i64 4, ptr %7) #11
  br label %34

15:                                               ; preds = %10
  call void @llvm.lifetime.start.p0(i64 4, ptr %9) #11
  store i32 1, ptr %9, align 4, !tbaa !4
  br label %16

16:                                               ; preds = %27, %15
  %17 = load i32, ptr %9, align 4, !tbaa !4
  %18 = load i32, ptr %5, align 4, !tbaa !4
  %19 = icmp ule i32 %17, %18
  br i1 %19, label %21, label %20

20:                                               ; preds = %16
  store i32 5, ptr %8, align 4
  call void @llvm.lifetime.end.p0(i64 4, ptr %9) #11
  br label %30

21:                                               ; preds = %16
  %22 = load ptr, ptr %6, align 8, !tbaa !8
  %23 = load i32, ptr %7, align 4, !tbaa !4
  %24 = load i32, ptr %4, align 4, !tbaa !4
  %25 = load i32, ptr %9, align 4, !tbaa !4
  %26 = add i32 %24, %25
  call void %22(i32 noundef %23, i32 noundef %26)
  br label %27

27:                                               ; preds = %21
  %28 = load i32, ptr %9, align 4, !tbaa !4
  %29 = add i32 %28, 1
  store i32 %29, ptr %9, align 4, !tbaa !4
  br label %16, !llvm.loop !19

30:                                               ; preds = %20
  br label %31

31:                                               ; preds = %30
  %32 = load i32, ptr %7, align 4, !tbaa !4
  %33 = add i32 %32, 1
  store i32 %33, ptr %7, align 4, !tbaa !4
  br label %10, !llvm.loop !20

34:                                               ; preds = %14
  ret void
}