; Function Attrs: nounwind uwtable
define dso_local void @makeCompleteB(i32 noundef %0, i32 noundef %1, ptr noundef readonly captures(none) %2) local_unnamed_addr #0 {
  %.not14 = icmp eq i32 %0, 0
  %.not1112 = icmp eq i32 %1, 0
  %or.cond = or i1 %.not14, %.not1112
  br i1 %or.cond, label %._crit_edge16, label %.preheader

.preheader:                                       ; preds = %3, %._crit_edge
  %.0915 = phi i32 [ %4, %._crit_edge ], [ 1, %3 ]
  br label %5

._crit_edge16:                                    ; preds = %._crit_edge, %3
  ret void

._crit_edge:                                      ; preds = %5
  %4 = add i32 %.0915, 1
  %.not = icmp ugt i32 %4, %0
  br i1 %.not, label %._crit_edge16, label %.preheader, !llvm.loop !16

5:                                                ; preds = %.preheader, %5
  %.013 = phi i32 [ 1, %.preheader ], [ %7, %5 ]
  %6 = add i32 %.013, %0
  tail call void %2(i32 noundef %.0915, i32 noundef %6) #15
  %7 = add i32 %.013, 1
  %.not11 = icmp ugt i32 %7, %1
  br i1 %.not11, label %._crit_edge, label %5, !llvm.loop !17
}